target datalayout = "e-m:e-p270:32:32-p271:32:32-p272:64:64-i64:64-i128:128-f80:128-n8:16:32:64-S128"
target triple = "x86_64-pc-linux-gnu"

%struct._dcerpc_info = type { ptr, i32, i64, i8, i8, i8, i32, i32, i32, i32, i32, i32, i32, i32, ptr, ptr, ptr, ptr, %struct.anon }
%struct.anon = type { i8, ptr, ptr, ptr, i8 }
%struct._packet_info = type { ptr, ptr, i32, i32, %struct.nstime_t, %struct.nstime_t, %struct.nstime_t, i8, ptr, ptr, ptr, ptr, %struct._address, %struct._address, %struct._address, %struct._address, %struct._address, %struct._address, i32, ptr, i8, [3 x i8], %struct.anon.0, i32, i32, i32, i32, ptr, i8, ptr, ptr, i16, i16, i32, i32, i16, i32, i32, ptr, ptr, ptr, i8, i8, i16, i16, i16, i32, i16, i16, ptr, ptr, ptr, ptr, ptr, i32, i32 }
%struct.nstime_t = type { i64, i32 }
%struct._address = type { i32, i32, ptr, ptr }
%struct.anon.0 = type { i8, [3 x i8] }

@hf_fileexp_minvvp_high = internal global i32 0, align 4
@hf_fileexp_minvvp_low = internal global i32 0, align 4
@ett_fileexp_minvvp = internal global i32 0, align 4
@.str.383 = private unnamed_addr constant [8 x i8] c"minVVp:\00", align 1
@.str.384 = private unnamed_addr constant [14 x i8] c" minVVp:%u/%u\00", align 1

; Function Attrs: null_pointer_is_valid sspstrong uwtable
define internal i32 @dissect_minvvp(ptr noundef %0, i32 noundef %1, ptr noundef %2, ptr noundef %3, ptr noundef %4, ptr noundef %5) #0 {
  %7 = alloca i32, align 4
  %8 = alloca ptr, align 8
  %9 = alloca i32, align 4
  %10 = alloca ptr, align 8
  %11 = alloca ptr, align 8
  %12 = alloca ptr, align 8
  %13 = alloca ptr, align 8
  %14 = alloca ptr, align 8
  %15 = alloca ptr, align 8
  %16 = alloca i32, align 4
  %17 = alloca i32, align 4
  %18 = alloca i32, align 4
  %19 = alloca i32, align 4
  store ptr %0, ptr %8, align 8
  store i32 %1, ptr %9, align 4
  store ptr %2, ptr %10, align 8
  store ptr %3, ptr %11, align 8
  store ptr %4, ptr %12, align 8
  store ptr %5, ptr %13, align 8
  call void @llvm.lifetime.start.p0(i64 8, ptr %14) #4
  store ptr null, ptr %14, align 8
  call void @llvm.lifetime.start.p0(i64 8, ptr %15) #4
  store ptr null, ptr %15, align 8
  call void @llvm.lifetime.start.p0(i64 4, ptr %16) #4
  %20 = load i32, ptr %9, align 4
  store i32 %20, ptr %16, align 4
  call void @llvm.lifetime.start.p0(i64 4, ptr %17) #4
  call void @llvm.lifetime.start.p0(i64 4, ptr %18) #4
  %21 = load ptr, ptr %12, align 8
  %22 = getelementptr inbounds nuw %struct._dcerpc_info, ptr %21, i32 0, i32 4
  %23 = load i8, ptr %22, align 1, !range !6, !noundef !7
  %24 = trunc i8 %23 to i1
  br i1 %24, label %25, label %27

25:                                               ; preds = %6
  %26 = load i32, ptr %9, align 4
  store i32 %26, ptr %7, align 4
  store i32 1, ptr %19, align 4
  br label %63

27:                                               ; preds = %6
  %28 = load ptr, ptr %11, align 8
  %29 = icmp ne ptr %28, null
  br i1 %29, label %30, label %36

30:                                               ; preds = %27
  %31 = load ptr, ptr %11, align 8
  %32 = load ptr, ptr %8, align 8
  %33 = load i32, ptr %9, align 4
  %34 = load i32, ptr @ett_fileexp_minvvp, align 4
  %35 = call ptr @proto_tree_add_subtree(ptr noundef %31, ptr noundef %32, i32 noundef %33, i32 noundef -1, i32 noundef %34, ptr noundef %14, ptr noundef @.str.383)
  store ptr %35, ptr %15, align 8
  br label %36

36:                                               ; preds = %30, %27
  %37 = load ptr, ptr %8, align 8
  %38 = load i32, ptr %9, align 4
  %39 = load ptr, ptr %10, align 8
  %40 = load ptr, ptr %15, align 8
  %41 = load ptr, ptr %12, align 8
  %42 = load ptr, ptr %13, align 8
  %43 = load i32, ptr @hf_fileexp_minvvp_high, align 4
  %44 = call i32 @dissect_ndr_uint32(ptr noundef %37, i32 noundef %38, ptr noundef %39, ptr noundef %40, ptr noundef %41, ptr noundef %42, i32 noundef %43, ptr noundef %17)
  store i32 %44, ptr %9, align 4
  %45 = load ptr, ptr %8, align 8
  %46 = load i32, ptr %9, align 4
  %47 = load ptr, ptr %10, align 8
  %48 = load ptr, ptr %15, align 8
  %49 = load ptr, ptr %12, align 8
  %50 = load ptr, ptr %13, align 8
  %51 = load i32, ptr @hf_fileexp_minvvp_low, align 4
  %52 = call i32 @dissect_ndr_uint32(ptr noundef %45, i32 noundef %46, ptr noundef %47, ptr noundef %48, ptr noundef %49, ptr noundef %50, i32 noundef %51, ptr noundef %18)
  store i32 %52, ptr %9, align 4
  %53 = load ptr, ptr %10, align 8
  %54 = getelementptr inbounds nuw %struct._packet_info, ptr %53, i32 0, i32 1
  %55 = load ptr, ptr %54, align 8
  %56 = load i32, ptr %17, align 4
  %57 = load i32, ptr %18, align 4
  call void (ptr, i32, ptr, ...) @col_append_fstr(ptr noundef %55, i32 noundef 25, ptr noundef @.str.384, i32 noundef %56, i32 noundef %57)
  %58 = load ptr, ptr %14, align 8
  %59 = load i32, ptr %9, align 4
  %60 = load i32, ptr %16, align 4
  %61 = sub i32 %59, %60
  call void @proto_item_set_len(ptr noundef %58, i32 noundef %61)
  %62 = load i32, ptr %9, align 4
  store i32 %62, ptr %7, align 4
  store i32 1, ptr %19, align 4
  br label %63

63:                                               ; preds = %36, %25
  call void @llvm.lifetime.end.p0(i64 4, ptr %18) #4
  call void @llvm.lifetime.end.p0(i64 4, ptr %17) #4
  call void @llvm.lifetime.end.p0(i64 4, ptr %16) #4
  call void @llvm.lifetime.end.p0(i64 8, ptr %15) #4
  call void @llvm.lifetime.end.p0(i64 8, ptr %14) #4
  %64 = load i32, ptr %7, align 4
  ret i32 %64
}